; Function Attrs: mustprogress nounwind uwtable
define dso_local void @_ZN4llvm2gi11MIFlagsInfo11addCopyFlagENS_9StringRefE(ptr noundef nonnull align 8 dereferenceable(120) %0, ptr %1, i64 %2) local_unnamed_addr #0 align 2 {
  %4 = alloca %"class.llvm::StringRef", align 8
  store ptr %1, ptr %4, align 8
  %5 = getelementptr inbounds nuw i8, ptr %4, i64 8
  store i64 %2, ptr %5, align 8
  %6 = getelementptr inbounds nuw i8, ptr %0, i64 80
  %7 = call noundef zeroext i1 @_ZN4llvm9SetVectorINS_9StringRefENS_11SmallVectorIS1_Lj0EEENS_8DenseSetIS1_NS_12DenseMapInfoIS1_vEEEELj0EE6insertERKS1_(ptr noundef nonnull align 8 dereferenceable(40) %6, ptr noundef nonnull align 8 dereferenceable(16) %4)
  ret void
}